; Function Attrs: mustprogress uwtable
define void @_ZNK6casadi6Concat10primitivesERN9__gnu_cxx17__normal_iteratorIPNS_2MXESt6vectorIS3_SaIS3_EEEE(ptr noundef nonnull align 8 dereferenceable(64) %0, ptr noundef nonnull align 1 %1) unnamed_addr #3 align 2 {
  %3 = tail call noundef i64 @_ZNK6casadi6MXNode5n_depEv(ptr noundef nonnull align 8 dereferenceable(64) %0)
  %4 = icmp sgt i64 %3, 0
  br i1 %4, label %.lr.ph, label %._crit_edge

.lr.ph:                                           ; preds = %2
  %5 = getelementptr inbounds i8, ptr %0, i64 32
  %6 = getelementptr inbounds i8, ptr %0, i64 40
  br label %7

7:                                                ; preds = %.lr.ph, %_ZNK6casadi6MXNode3depEx.exit
  %.05 = phi i64 [ 0, %.lr.ph ], [ %20, %_ZNK6casadi6MXNode3depEx.exit ]
  %8 = load ptr, ptr %6, align 8
  %9 = load ptr, ptr %5, align 8
  %10 = ptrtoint ptr %8 to i64
  %11 = ptrtoint ptr %9 to i64
  %12 = sub i64 %10, %11
  %13 = ashr exact i64 %12, 3
  %.not.i.i.i = icmp ugt i64 %13, %.05
  br i1 %.not.i.i.i, label %_ZNK6casadi6MXNode3depEx.exit, label %14

14:                                               ; preds = %7
  tail call void (ptr, ...) @_ZSt24__throw_out_of_range_fmtPKcz(ptr noundef nonnull @.str.27, i64 noundef %.05, i64 noundef %13) #19
  unreachable

_ZNK6casadi6MXNode3depEx.exit:                    ; preds = %7
  %15 = getelementptr inbounds %"class.casadi::MX", ptr %9, i64 %.05
  %16 = tail call noundef ptr @_ZNK6casadi2MXptEv(ptr noundef nonnull align 8 dereferenceable(8) %15)
  %17 = load ptr, ptr %16, align 8
  %18 = getelementptr inbounds i8, ptr %17, i64 224
  %19 = load ptr, ptr %18, align 8
  tail call void %19(ptr noundef nonnull align 8 dereferenceable(64) %16, ptr noundef nonnull align 1 %1)
  %20 = add nuw nsw i64 %.05, 1
  %21 = tail call noundef i64 @_ZNK6casadi6MXNode5n_depEv(ptr noundef nonnull align 8 dereferenceable(64) %0)
  %22 = icmp slt i64 %20, %21
  br i1 %22, label %7, label %._crit_edge, !llvm.loop !55

._crit_edge:                                      ; preds = %_ZNK6casadi6MXNode3depEx.exit, %2
  ret void
}